; Function Attrs: nounwind uwtable
define dso_local i32 @replace_refs_enabled(ptr noundef %0) local_unnamed_addr #0 {
  %.b = load i1, ptr @read_replace_refs, align 4
  br i1 %.b, label %7, label %2

2:                                                ; preds = %1
  %3 = load ptr, ptr %0, align 8, !tbaa !48
  %.not = icmp eq ptr %3, null
  br i1 %.not, label %7, label %4

4:                                                ; preds = %2
  tail call void @prepare_repo_settings(ptr noundef nonnull %0) #9
  %5 = getelementptr inbounds nuw i8, ptr %0, i64 300
  %6 = load i32, ptr %5, align 4, !tbaa !49
  br label %7

7:                                                ; preds = %2, %1, %4
  %.0 = phi i32 [ %6, %4 ], [ 0, %1 ], [ 0, %2 ]
  ret i32 %.0
}